ARM GAS  C:\msys64\tmp\ccC9UjFd.s 			page 1


   1              		.syntax unified
   2              		.cpu cortex-m4
   3              		.eabi_attribute 27, 1
   4              		.eabi_attribute 28, 1
   5              		.fpu fpv4-sp-d16
   6              		.eabi_attribute 20, 1
   7              		.eabi_attribute 21, 1
   8              		.eabi_attribute 23, 3
   9              		.eabi_attribute 24, 1
  10              		.eabi_attribute 25, 1
  11              		.eabi_attribute 26, 1
  12              		.eabi_attribute 30, 4
  13              		.eabi_attribute 34, 1
  14              		.eabi_attribute 18, 4
  15              		.thumb
  16              		.syntax unified
  17              		.file	"compressor.cpp"
  18              		.text
  19              	.Ltext0:
  20              		.cfi_sections	.debug_frame
  21              		.align	1
  22              		.global	_hook_init
  23              		.thumb
  24              		.thumb_func
  25              		.type	_hook_init, %function
  26              	_hook_init:
  27              	.LFB228:
  28              		.file 1 "./src/compressor.cpp"
  29              		.loc 1 23 0
  30              		.cfi_startproc
  31              		@ args = 0, pretend = 0, frame = 0
  32              		@ frame_needed = 0, uses_anonymous_args = 0
  33              		@ link register save eliminated.
  34              	.LVL0:
  35 0000 7047     		bx	lr
  36              		.cfi_endproc
  37              	.LFE228:
  38              		.size	_hook_init, .-_hook_init
  39              		.align	1
  40              		.global	_Z13_hook_processPKfPfS0_S0_m
  41              		.thumb
  42              		.thumb_func
  43              		.type	_Z13_hook_processPKfPfS0_S0_m, %function
  44              	_Z13_hook_processPKfPfS0_S0_m:
  45              	.LFB229:
  46              		.loc 1 34 0
  47              		.cfi_startproc
  48              		@ args = 4, pretend = 0, frame = 0
  49              		@ frame_needed = 0, uses_anonymous_args = 0
  50              		@ link register save eliminated.
  51              	.LVL1:
  52              	.LBB60:
  53              	.LBB61:
  54              		.loc 1 45 0
  55 0002 7B4A     		ldr	r2, .L75
  56              	.LVL2:
  57              	.LBE61:
ARM GAS  C:\msys64\tmp\ccC9UjFd.s 			page 2


  58              	.LBE60:
  59              		.loc 1 34 0
  60 0004 009B     		ldr	r3, [sp]
  61              	.LVL3:
  62              	.LBB100:
  63              	.LBB97:
  64              		.loc 1 45 0
  65 0006 D2ED015A 		vldr.32	s11, [r2, #4]
  66 000a 92ED006A 		vldr.32	s12, [r2]
  67              	.LBB62:
  68              	.LBB63:
  69              	.LBB64:
  70              	.LBB65:
  71              	.LBB66:
  72              		.file 2 "../inc/utils/float_math.h"
  73              		.loc 2 193 0
  74 000e DFED793A 		vldr.32	s7, .L75+4
  75              	.LBE66:
  76              	.LBE65:
  77              	.LBE64:
  78              	.LBE63:
  79              	.LBE62:
  80              		.loc 1 45 0
  81 0012 F7EE002A 		vmov.f32	s5, #1.0e+0
  82              		.loc 1 47 0
  83 0016 B1EE654A 		vneg.f32	s8, s11
  84 001a 0830     		adds	r0, r0, #8
  85              	.LVL4:
  86 001c F0EE624A 		vmov.f32	s9, s5
  87              		.loc 1 58 0
  88 0020 B6EE003A 		vmov.f32	s6, #5.0e-1
  89              	.LVL5:
  90              	.L40:
  91              	.LBE97:
  92              		.loc 1 41 0 discriminator 1
  93 0024 13F1FF33 		adds	r3, r3, #-1
  94              	.LVL6:
  95 0028 C0F0E180 		bcc	.L2
  96              	.LBB98:
  97              		.loc 1 45 0
  98 002c B4EEE26A 		vcmpe.f32	s12, s5
  99 0030 F1EE10FA 		vmrs	APSR_nzcv, FPSCR
 100              		.loc 1 43 0
 101 0034 10ED027A 		vldr.32	s14, [r0, #-8]
 102              	.LVL7:
 103 0038 10ED015A 		vldr.32	s10, [r0, #-4]
 104              	.LVL8:
 105              		.loc 1 45 0
 106 003c 0BDD     		ble	.L61
 107              		.loc 1 45 0 is_stmt 0 discriminator 1
 108 003e B5EEC07A 		vcmpe.f32	s14, #0
 109 0042 F1EE10FA 		vmrs	APSR_nzcv, FPSCR
 110 0046 40F3A980 		ble	.L6
 111              		.loc 1 45 0 discriminator 3
 112 004a F4EEC75A 		vcmpe.f32	s11, s14
 113 004e F1EE10FA 		vmrs	APSR_nzcv, FPSCR
 114 0052 07DC     		bgt	.L8
ARM GAS  C:\msys64\tmp\ccC9UjFd.s 			page 3


 115 0054 A2E0     		b	.L6
 116              	.L61:
 117              		.loc 1 45 0 discriminator 5
 118 0056 15D5     		bpl	.L62
 119              		.loc 1 45 0 discriminator 6
 120 0058 F4EEC75A 		vcmpe.f32	s11, s14
 121 005c F1EE10FA 		vmrs	APSR_nzcv, FPSCR
 122 0060 40F1A380 		bpl	.L63
 123              	.L8:
 124              		.loc 1 46 0 is_stmt 1
 125 0064 77EE657A 		vsub.f32	s15, s14, s11
 126 0068 F0EE656A 		vmov.f32	s13, s11
 127 006c E6EE276A 		vfma.f32	s13, s12, s15
 128              	.LBB71:
 129              	.LBB72:
 130              	.LBB73:
 131              	.LBB74:
 132              		.loc 2 193 0
 133 0070 F5EEC06A 		vcmpe.f32	s13, #0
 134              	.LBE74:
 135              	.LBE73:
 136              	.LBE72:
 137              	.LBE71:
 138              		.loc 1 46 0
 139 0074 F0EE667A 		vmov.f32	s15, s13
 140              	.LVL9:
 141              	.LBB81:
 142              	.LBB79:
 143              	.LBB77:
 144              	.LBB75:
 145              		.loc 2 193 0
 146 0078 F1EE10FA 		vmrs	APSR_nzcv, FPSCR
 147 007c B8BF     		it	lt
 148 007e F0EE637A 		vmovlt.f32	s15, s7
 149 0082 26E0     		b	.L13
 150              	.LVL10:
 151              	.L62:
 152              	.LBE75:
 153              	.LBE77:
 154              	.LBE79:
 155              	.LBE81:
 156              		.loc 1 47 0
 157 0084 0ADD     		ble	.L64
 158              	.L42:
 159              		.loc 1 47 0 is_stmt 0 discriminator 1
 160 0086 B5EEC07A 		vcmpe.f32	s14, #0
 161 008a F1EE10FA 		vmrs	APSR_nzcv, FPSCR
 162 008e 26D5     		bpl	.L17
 163              		.loc 1 47 0 discriminator 3
 164 0090 B4EEC74A 		vcmpe.f32	s8, s14
 165 0094 F1EE10FA 		vmrs	APSR_nzcv, FPSCR
 166 0098 07D4     		bmi	.L19
 167 009a 20E0     		b	.L17
 168              	.L64:
 169              		.loc 1 47 0 discriminator 5
 170 009c 17D5     		bpl	.L65
 171              	.L43:
ARM GAS  C:\msys64\tmp\ccC9UjFd.s 			page 4


 172              		.loc 1 47 0 discriminator 6
 173 009e B4EEC74A 		vcmpe.f32	s8, s14
 174 00a2 F1EE10FA 		vmrs	APSR_nzcv, FPSCR
 175 00a6 40F38780 		ble	.L66
 176              	.L19:
 177              		.loc 1 48 0 is_stmt 1
 178 00aa 75EE877A 		vadd.f32	s15, s11, s14
 179 00ae F0EE446A 		vmov.f32	s13, s8
 180 00b2 E6EE276A 		vfma.f32	s13, s12, s15
 181 00b6 F0EE667A 		vmov.f32	s15, s13
 182              	.LVL11:
 183              	.LBB82:
 184              	.LBB83:
 185              	.LBB84:
 186              	.LBB85:
 187              	.LBB86:
 188              		.loc 2 193 0
 189 00ba 73EEE66A 		vsub.f32	s13, s7, s13
 190              	.LVL12:
 191              	.LBE86:
 192              	.LBE85:
 193              	.LBE84:
 194              	.LBE83:
 195              	.LBE82:
 196              	.LBB87:
 197              	.LBB80:
 198              	.LBB78:
 199              	.LBB76:
 200 00be F5EEC06A 		vcmpe.f32	s13, #0
 201 00c2 F1EE10FA 		vmrs	APSR_nzcv, FPSCR
 202 00c6 B8BF     		it	lt
 203 00c8 F0EE637A 		vmovlt.f32	s15, s7
 204              	.LVL13:
 205 00cc 01E0     		b	.L13
 206              	.LVL14:
 207              	.L65:
 208              	.LBE76:
 209              	.LBE78:
 210              	.LBE80:
 211              	.LBE87:
 212              		.loc 1 43 0
 213 00ce F0EE477A 		vmov.f32	s15, s14
 214              	.L13:
 215              	.LVL15:
 216              		.loc 1 50 0
 217 00d2 B4EEE46A 		vcmpe.f32	s12, s9
 218 00d6 F1EE10FA 		vmrs	APSR_nzcv, FPSCR
 219 00da 07DC     		bgt	.L44
 220 00dc 11E0     		b	.L73
 221              	.LVL16:
 222              	.L17:
 223              		.loc 1 47 0
 224 00de B4EEE46A 		vcmpe.f32	s12, s9
 225 00e2 F1EE10FA 		vmrs	APSR_nzcv, FPSCR
 226 00e6 DAD4     		bmi	.L43
 227              	.L53:
 228              		.loc 1 43 0
ARM GAS  C:\msys64\tmp\ccC9UjFd.s 			page 5


 229 00e8 F0EE477A 		vmov.f32	s15, s14
 230              	.LVL17:
 231              	.L44:
 232              		.loc 1 50 0 discriminator 1
 233 00ec B5EEC05A 		vcmpe.f32	s10, #0
 234 00f0 F1EE10FA 		vmrs	APSR_nzcv, FPSCR
 235 00f4 68DD     		ble	.L26
 236              		.loc 1 50 0 is_stmt 0 discriminator 3
 237 00f6 F4EEC55A 		vcmpe.f32	s11, s10
 238 00fa F1EE10FA 		vmrs	APSR_nzcv, FPSCR
 239 00fe 06DC     		bgt	.L28
 240 0100 62E0     		b	.L26
 241              	.L73:
 242              		.loc 1 50 0 discriminator 5
 243 0102 14D5     		bpl	.L68
 244              	.L45:
 245              		.loc 1 50 0 discriminator 6
 246 0104 F4EEC55A 		vcmpe.f32	s11, s10
 247 0108 F1EE10FA 		vmrs	APSR_nzcv, FPSCR
 248 010c 62D5     		bpl	.L69
 249              	.L28:
 250              		.loc 1 51 0 is_stmt 1
 251 010e 75EE656A 		vsub.f32	s13, s10, s11
 252 0112 B0EE652A 		vmov.f32	s4, s11
 253 0116 A6EE262A 		vfma.f32	s4, s12, s13
 254              	.LBB88:
 255              	.LBB89:
 256              	.LBB90:
 257              	.LBB91:
 258              		.loc 2 193 0
 259 011a B5EEC02A 		vcmpe.f32	s4, #0
 260              	.LBE91:
 261              	.LBE90:
 262              	.LBE89:
 263              	.LBE88:
 264              		.loc 1 51 0
 265 011e F0EE426A 		vmov.f32	s13, s4
 266              	.LVL18:
 267              	.LBB95:
 268              	.LBB94:
 269              	.LBB93:
 270              	.LBB92:
 271              		.loc 2 193 0
 272 0122 F1EE10FA 		vmrs	APSR_nzcv, FPSCR
 273 0126 B8BF     		it	lt
 274 0128 F0EE636A 		vmovlt.f32	s13, s7
 275 012c 28E0     		b	.L33
 276              	.LVL19:
 277              	.L68:
 278              	.LBE92:
 279              	.LBE93:
 280              	.LBE94:
 281              	.LBE95:
 282              		.loc 1 52 0
 283 012e 09DD     		ble	.L34
 284              	.L46:
 285              		.loc 1 52 0 is_stmt 0 discriminator 1
ARM GAS  C:\msys64\tmp\ccC9UjFd.s 			page 6


 286 0130 B5EEC05A 		vcmpe.f32	s10, #0
 287 0134 F1EE10FA 		vmrs	APSR_nzcv, FPSCR
 288 0138 04D5     		bpl	.L34
 289              		.loc 1 52 0 discriminator 3
 290 013a B4EEC54A 		vcmpe.f32	s8, s10
 291 013e F1EE10FA 		vmrs	APSR_nzcv, FPSCR
 292 0142 09D4     		bmi	.L37
 293              	.L34:
 294              		.loc 1 52 0 discriminator 5
 295 0144 B4EEE46A 		vcmpe.f32	s12, s9
 296 0148 F1EE10FA 		vmrs	APSR_nzcv, FPSCR
 297 014c 16D5     		bpl	.L71
 298              	.L47:
 299              		.loc 1 52 0 discriminator 6
 300 014e B4EEC54A 		vcmpe.f32	s8, s10
 301 0152 F1EE10FA 		vmrs	APSR_nzcv, FPSCR
 302 0156 11DD     		ble	.L71
 303              	.L37:
 304              		.loc 1 53 0 is_stmt 1
 305 0158 75EE856A 		vadd.f32	s13, s11, s10
 306 015c B0EE442A 		vmov.f32	s4, s8
 307 0160 A6EE262A 		vfma.f32	s4, s12, s13
 308 0164 F0EE426A 		vmov.f32	s13, s4
 309              	.LVL20:
 310              	.LBB96:
 311              	.LBB70:
 312              	.LBB69:
 313              	.LBB68:
 314              	.LBB67:
 315              		.loc 2 193 0
 316 0168 33EEC22A 		vsub.f32	s4, s7, s4
 317              	.LVL21:
 318 016c B5EEC02A 		vcmpe.f32	s4, #0
 319 0170 F1EE10FA 		vmrs	APSR_nzcv, FPSCR
 320 0174 B8BF     		it	lt
 321 0176 F0EE636A 		vmovlt.f32	s13, s7
 322              	.LVL22:
 323 017a 01E0     		b	.L33
 324              	.LVL23:
 325              	.L71:
 326              	.LBE67:
 327              	.LBE68:
 328              	.LBE69:
 329              	.LBE70:
 330              	.LBE96:
 331              		.loc 1 43 0
 332 017c F0EE456A 		vmov.f32	s13, s10
 333              	.L33:
 334              	.LVL24:
 335              		.loc 1 58 0 discriminator 2
 336 0180 67EE837A 		vmul.f32	s15, s15, s6
 337              	.LVL25:
 338 0184 66EE836A 		vmul.f32	s13, s13, s6
 339              	.LVL26:
 340 0188 E7EE037A 		vfma.f32	s15, s14, s6
 341 018c 0830     		adds	r0, r0, #8
 342              	.LVL27:
ARM GAS  C:\msys64\tmp\ccC9UjFd.s 			page 7


 343 018e E5EE036A 		vfma.f32	s13, s10, s6
 344 0192 40ED047A 		vstr.32	s15, [r0, #-16]
 345 0196 40ED036A 		vstr.32	s13, [r0, #-12]
 346              	.LVL28:
 347              	.LBE98:
 348              		.loc 1 41 0 discriminator 2
 349 019a 43E7     		b	.L40
 350              	.LVL29:
 351              	.L6:
 352              	.LBB99:
 353              		.loc 1 45 0
 354 019c B4EEE46A 		vcmpe.f32	s12, s9
 355 01a0 F1EE10FA 		vmrs	APSR_nzcv, FPSCR
 356 01a4 7FF56FAF 		bpl	.L42
 357 01a8 1AE0     		b	.L74
 358              	.L63:
 359              		.loc 1 47 0
 360 01aa B4EEE26A 		vcmpe.f32	s12, s5
 361 01ae F1EE10FA 		vmrs	APSR_nzcv, FPSCR
 362 01b2 7FF774AF 		ble	.L43
 363 01b6 66E7     		b	.L42
 364              	.L66:
 365              		.loc 1 50 0
 366 01b8 B4EEE46A 		vcmpe.f32	s12, s9
 367 01bc F1EE10FA 		vmrs	APSR_nzcv, FPSCR
 368 01c0 92DC     		bgt	.L53
 369              		.loc 1 43 0
 370 01c2 F0EE477A 		vmov.f32	s15, s14
 371 01c6 9DE7     		b	.L45
 372              	.LVL30:
 373              	.L26:
 374              		.loc 1 50 0
 375 01c8 B4EEE46A 		vcmpe.f32	s12, s9
 376 01cc F1EE10FA 		vmrs	APSR_nzcv, FPSCR
 377 01d0 AED5     		bpl	.L46
 378 01d2 97E7     		b	.L45
 379              	.L69:
 380              		.loc 1 52 0
 381 01d4 B4EEE46A 		vcmpe.f32	s12, s9
 382 01d8 F1EE10FA 		vmrs	APSR_nzcv, FPSCR
 383 01dc B7DD     		ble	.L47
 384 01de A7E7     		b	.L46
 385              	.LVL31:
 386              	.L74:
 387              		.loc 1 45 0
 388 01e0 F4EEC75A 		vcmpe.f32	s11, s14
 389 01e4 F1EE10FA 		vmrs	APSR_nzcv, FPSCR
 390 01e8 3FF53CAF 		bmi	.L8
 391 01ec 4BE7     		b	.L42
 392              	.LVL32:
 393              	.L2:
 394 01ee 7047     		bx	lr
 395              	.L76:
 396              		.align	2
 397              	.L75:
 398 01f0 00000000 		.word	.LANCHOR0
 399 01f4 00000000 		.word	0
ARM GAS  C:\msys64\tmp\ccC9UjFd.s 			page 8


 400              	.LBE99:
 401              	.LBE100:
 402              		.cfi_endproc
 403              	.LFE229:
 404              		.size	_Z13_hook_processPKfPfS0_S0_m, .-_Z13_hook_processPKfPfS0_S0_m
 405              		.align	1
 406              		.global	_hook_param
 407              		.thumb
 408              		.thumb_func
 409              		.type	_hook_param, %function
 410              	_hook_param:
 411              	.LFB230:
 412              		.loc 1 81 0
 413              		.cfi_startproc
 414              		@ args = 0, pretend = 0, frame = 0
 415              		@ frame_needed = 0, uses_anonymous_args = 0
 416              		@ link register save eliminated.
 417              	.LVL33:
 418              		.loc 1 82 0
 419 01f8 07EE901A 		vmov	s15, r1	@ int
 420 01fc FAEEE07A 		vcvt.f32.s32	s15, s15, #31
 421              	.LVL34:
 422              		.loc 1 83 0
 423 0200 10B1     		cbz	r0, .L79
 424 0202 0128     		cmp	r0, #1
 425 0204 27D0     		beq	.L80
 426 0206 7047     		bx	lr
 427              	.L79:
 428              	.LVL35:
 429              	.LBB101:
 430              	.LBB102:
 431              	.LBB103:
 432              	.LBB104:
 433              	.LBB105:
 434              	.LBB106:
 435              		.loc 2 696 0
 436 0208 B7EE007A 		vmov.f32	s14, #1.0e+0
 437 020c 77EEC77A 		vsub.f32	s15, s15, s14
 438              	.LVL36:
 439 0210 9FED247A 		vldr.32	s14, .L89
 440              	.LBE106:
 441              	.LBE105:
 442              	.LBE104:
 443              	.LBE103:
 444              	.LBE102:
 445              	.LBE101:
 446              		.loc 1 85 0
 447 0214 244B     		ldr	r3, .L89+4
 448              	.LBB112:
 449              	.LBB111:
 450              	.LBB110:
 451              	.LBB109:
 452              	.LBB108:
 453              	.LBB107:
 454              		.loc 2 696 0
 455 0216 67EE877A 		vmul.f32	s15, s15, s14
 456 021a 9FED247A 		vldr.32	s14, .L89+8
ARM GAS  C:\msys64\tmp\ccC9UjFd.s 			page 9


 457 021e 67EE877A 		vmul.f32	s15, s15, s14
 458 0222 9FED237A 		vldr.32	s14, .L89+12
 459 0226 67EE877A 		vmul.f32	s15, s15, s14
 460 022a 9FED227A 		vldr.32	s14, .L89+16
 461 022e F4EEC77A 		vcmpe.f32	s15, s14
 462 0232 F1EE10FA 		vmrs	APSR_nzcv, FPSCR
 463 0236 B8BF     		it	lt
 464 0238 F0EE477A 		vmovlt.f32	s15, s14
 465 023c 9FED1E7A 		vldr.32	s14, .L89+20
 466 0240 77EE877A 		vadd.f32	s15, s15, s14
 467 0244 9FED1D7A 		vldr.32	s14, .L89+24
 468 0248 67EE877A 		vmul.f32	s15, s15, s14
 469              	.LBE107:
 470              	.LBE108:
 471              	.LBE109:
 472              	.LBE110:
 473              	.LBE111:
 474              	.LBE112:
 475              		.loc 1 85 0
 476 024c FCEEE77A 		vcvt.u32.f32	s15, s15
 477 0250 C3ED017A 		vstr.32	s15, [r3, #4]
 478              		.loc 1 86 0
 479 0254 7047     		bx	lr
 480              	.LVL37:
 481              	.L80:
 482              		.loc 1 88 0
 483 0256 77EEA77A 		vadd.f32	s15, s15, s15
 484              	.LVL38:
 485 025a 134B     		ldr	r3, .L89+4
 486              		.loc 1 89 0
 487 025c F5EE407A 		vcmp.f32	s15, #0
 488 0260 F1EE10FA 		vmrs	APSR_nzcv, FPSCR
 489 0264 02D1     		bne	.L81
 490              		.loc 1 90 0
 491 0266 164A     		ldr	r2, .L89+28
 492 0268 1A60     		str	r2, [r3]	@ float
 493 026a 7047     		bx	lr
 494              	.L81:
 495              		.loc 1 91 0
 496 026c B7EE007A 		vmov.f32	s14, #1.0e+0
 497 0270 F4EE477A 		vcmp.f32	s15, s14
 498 0274 F1EE10FA 		vmrs	APSR_nzcv, FPSCR
 499 0278 02D1     		bne	.L82
 500              		.loc 1 92 0
 501 027a 83ED007A 		vstr.32	s14, [r3]
 502 027e 7047     		bx	lr
 503              	.L82:
 504              		.loc 1 93 0
 505 0280 F4EEC77A 		vcmpe.f32	s15, s14
 506 0284 F1EE10FA 		vmrs	APSR_nzcv, FPSCR
 507 0288 04D5     		bpl	.L87
 508              		.loc 1 94 0
 509 028a C7EE276A 		vdiv.f32	s13, s14, s15
 510 028e C3ED006A 		vstr.32	s13, [r3]
 511 0292 7047     		bx	lr
 512              	.L87:
 513              		.loc 1 96 0
ARM GAS  C:\msys64\tmp\ccC9UjFd.s 			page 10


 514 0294 C4BF     		itt	gt
 515 0296 B0EE007A 		vmovgt.f32	s14, #2.0e+0
 516 029a 77EE677A 		vsubgt.f32	s15, s14, s15
 517 029e C3ED007A 		vstr.32	s15, [r3]
 518 02a2 7047     		bx	lr
 519              	.L90:
 520              		.align	2
 521              	.L89:
 522 02a4 0000A042 		.word	1117782016
 523 02a8 00000000 		.word	.LANCHOR0
 524 02ac CDCC4C3D 		.word	1028443341
 525 02b0 E0AA5340 		.word	1079225056
 526 02b4 0000FCC2 		.word	-1023672320
 527 02b8 A9E2FD42 		.word	1123934889
 528 02bc 0000004B 		.word	1258291200
 529 02c0 FFFF7F7F 		.word	2139095039
 530              		.cfi_endproc
 531              	.LFE230:
 532              		.size	_hook_param, .-_hook_param
 533              		.data
 534              		.align	2
 535              		.set	.LANCHOR0,. + 0
 536              		.type	_ZL6s_gain, %object
 537              		.size	_ZL6s_gain, 4
 538              	_ZL6s_gain:
 539 0000 0000803F 		.word	1065353216
 540              		.type	_ZL11s_threshold, %object
 541              		.size	_ZL11s_threshold, 4
 542              	_ZL11s_threshold:
 543 0004 0000003F 		.word	1056964608
 544              		.text
 545              	.Letext0:
 546              		.file 3 "c:\\users\\bradl\\desktop\\code projects\\dsp resources\\logue-sdk\\tools\\gcc\\gcc-arm-n
 547              		.file 4 "c:\\users\\bradl\\desktop\\code projects\\dsp resources\\logue-sdk\\tools\\gcc\\gcc-arm-n
 548              		.file 5 "./inc/usermodfx.h"
 549              		.file 6 "./inc/fx_api.h"
 550              		.file 7 "./inc/userprg.h"