
build/waveshaper.elf:     file format elf32-littlearm


Disassembly of section .text:

20017840 <_text_start>:
20017840:	4770      	bx	lr

20017842 <_hook_resume>:
20017842:	4770      	bx	lr
20017844:	4770      	bx	lr

20017846 <_hook_suspend>:
20017846:	4770      	bx	lr
20017848:	4770      	bx	lr

2001784a <_entry>:
2001784a:	4b10      	ldr	r3, [pc, #64]	; (2001788c <_entry+0x42>)
2001784c:	4a10      	ldr	r2, [pc, #64]	; (20017890 <_entry+0x46>)
2001784e:	e92d 41f0 	stmdb	sp!, {r4, r5, r6, r7, r8, lr}
20017852:	4688      	mov	r8, r1
20017854:	4607      	mov	r7, r0
20017856:	2100      	movs	r1, #0
20017858:	4293      	cmp	r3, r2
2001785a:	d002      	beq.n	20017862 <_entry+0x18>
2001785c:	f803 1f01 	strb.w	r1, [r3, #1]!
20017860:	e7fa      	b.n	20017858 <_entry+0xe>
20017862:	4b0c      	ldr	r3, [pc, #48]	; (20017894 <_entry+0x4a>)
20017864:	4c0c      	ldr	r4, [pc, #48]	; (20017898 <_entry+0x4e>)
20017866:	1ae4      	subs	r4, r4, r3
20017868:	10a4      	asrs	r4, r4, #2
2001786a:	2500      	movs	r5, #0
2001786c:	461e      	mov	r6, r3
2001786e:	42a5      	cmp	r5, r4
20017870:	d005      	beq.n	2001787e <_entry+0x34>
20017872:	f856 3025 	ldr.w	r3, [r6, r5, lsl #2]
20017876:	b103      	cbz	r3, 2001787a <_entry+0x30>
20017878:	4798      	blx	r3
2001787a:	3501      	adds	r5, #1
2001787c:	e7f7      	b.n	2001786e <_entry+0x24>
2001787e:	4641      	mov	r1, r8
20017880:	4638      	mov	r0, r7
20017882:	f000 f80b 	bl	2001789c <_hook_init>
20017886:	e8bd 81f0 	ldmia.w	sp!, {r4, r5, r6, r7, r8, pc}
2001788a:	bf00      	nop
2001788c:	20017927 	.word	0x20017927
20017890:	20017927 	.word	0x20017927
20017894:	20017840 	.word	0x20017840
20017898:	20017840 	.word	0x20017840

2001789c <_hook_init>:
    return 1.5f * in - 0.5f * in *in * in;
}

// Initializing Platform //
void MODFX_INIT(uint32_t platform, uint32_t api)
{
2001789c:	4770      	bx	lr

2001789e <_hook_process>:
  {
    float xn_cur = *xn++;

    // Waveshaping algorithm // 
    // DRY + WET
    base_main = xn_cur + (wet * ((xn_cur * ((distamt * 10.0f) + 1.f)) - xn_cur));
2001789e:	4b15      	ldr	r3, [pc, #84]	; (200178f4 <_hook_process+0x56>)
200178a0:	ed93 4a00 	vldr	s8, [r3]
200178a4:	edd3 5a01 	vldr	s11, [r3, #4]
200178a8:	9b00      	ldr	r3, [sp, #0]
200178aa:	eef2 4a04 	vmov.f32	s9, #36	; 0x41200000  10.0
200178ae:	005a      	lsls	r2, r3, #1
200178b0:	eeb7 5a00 	vmov.f32	s10, #112	; 0x3f800000  1.0
{
  float base_main;

  // Effect processing loop //
  // For double frames (AKA samples cause each frame = sample pair)
  for (int i=0;i<frames*2;i++)
200178b4:	2300      	movs	r3, #0
    float xn_cur = *xn++;

    // Waveshaping algorithm // 
    // DRY + WET
    base_main = xn_cur + (wet * ((xn_cur * ((distamt * 10.0f) + 1.f)) - xn_cur));
    *yn++ = waveshape(base_main);
200178b6:	eeb6 6a00 	vmov.f32	s12, #96	; 0x3f000000  0.5
200178ba:	eef7 6a08 	vmov.f32	s13, #120	; 0x3fc00000  1.5
{
  float base_main;

  // Effect processing loop //
  // For double frames (AKA samples cause each frame = sample pair)
  for (int i=0;i<frames*2;i++)
200178be:	4293      	cmp	r3, r2
200178c0:	d017      	beq.n	200178f2 <_hook_process+0x54>
  {
    float xn_cur = *xn++;

    // Waveshaping algorithm // 
    // DRY + WET
    base_main = xn_cur + (wet * ((xn_cur * ((distamt * 10.0f) + 1.f)) - xn_cur));
200178c2:	eeb0 7a45 	vmov.f32	s14, s10
200178c6:	eea4 7a24 	vfma.f32	s14, s8, s9
{
  float base_main;

  // Effect processing loop //
  // For double frames (AKA samples cause each frame = sample pair)
  for (int i=0;i<frames*2;i++)
200178ca:	3301      	adds	r3, #1
  {
    float xn_cur = *xn++;
200178cc:	ecf0 7a01 	vldmia	r0!, {s15}

    // Waveshaping algorithm // 
    // DRY + WET
    base_main = xn_cur + (wet * ((xn_cur * ((distamt * 10.0f) + 1.f)) - xn_cur));
200178d0:	eef0 3a67 	vmov.f32	s7, s15
200178d4:	eed7 3a87 	vfnms.f32	s7, s15, s14
200178d8:	eee3 7aa5 	vfma.f32	s15, s7, s11
    *yn++ = waveshape(base_main);
200178dc:	ee27 7aa7 	vmul.f32	s14, s15, s15
200178e0:	ee27 7a27 	vmul.f32	s14, s14, s15
200178e4:	ee26 7a47 	vnmul.f32	s14, s12, s14
200178e8:	eea7 7aa6 	vfma.f32	s14, s15, s13
200178ec:	eca1 7a01 	vstmia	r1!, {s14}
{
  float base_main;

  // Effect processing loop //
  // For double frames (AKA samples cause each frame = sample pair)
  for (int i=0;i<frames*2;i++)
200178f0:	e7e5      	b.n	200178be <_hook_process+0x20>
200178f2:	4770      	bx	lr
200178f4:	20017920 	.word	0x20017920

200178f8 <_hook_param>:

// Param Controls //
void MODFX_PARAM(uint8_t index, int32_t value)
{
  //Convert fixed-point q31 format to float
  const float valf = q31_to_f32(value);
200178f8:	ee07 1a90 	vmov	s15, r1
200178fc:	eefa 7ae0 	vcvt.f32.s32	s15, s15, #31
  switch (index)
20017900:	b110      	cbz	r0, 20017908 <_hook_param+0x10>
20017902:	2801      	cmp	r0, #1
20017904:	d004      	beq.n	20017910 <_hook_param+0x18>
20017906:	4770      	bx	lr
  {
    case 0:
      distamt = valf;
20017908:	4b03      	ldr	r3, [pc, #12]	; (20017918 <_hook_param+0x20>)
2001790a:	edc3 7a00 	vstr	s15, [r3]
    break;
2001790e:	4770      	bx	lr
  case 1:
      wet = valf;
20017910:	4b01      	ldr	r3, [pc, #4]	; (20017918 <_hook_param+0x20>)
20017912:	edc3 7a01 	vstr	s15, [r3, #4]
20017916:	4770      	bx	lr
20017918:	20017920 	.word	0x20017920
